ccopy_reg
_reconstructor
p0
(csklearn.preprocessing.label
LabelEncoder
p1
c__builtin__
object
p2
Ntp3
Rp4
(dp5
S'classes_'
p6
cnumpy.core.multiarray
_reconstruct
p7
(cnumpy
ndarray
p8
(I0
tp9
S'b'
p10
tp11
Rp12
(I1
(I41
tp13
cnumpy
dtype
p14
(S'O8'
p15
I0
I1
tp16
Rp17
(I3
S'|'
p18
NNNI-1
I-1
I63
tp19
bI00
(lp20
S'Acoustic_guitar'
p21
aS'Applause'
p22
aS'Bark'
p23
aS'Bass_drum'
p24
aS'Burping_or_eructation'
p25
aS'Bus'
p26
aS'Cello'
p27
aS'Chime'
p28
aS'Clarinet'
p29
aS'Computer_keyboard'
p30
aS'Cough'
p31
aS'Cowbell'
p32
aS'Double_bass'
p33
aS'Drawer_open_or_close'
p34
aS'Electric_piano'
p35
aS'Fart'
p36
aS'Finger_snapping'
p37
aS'Fireworks'
p38
aS'Flute'
p39
aS'Glockenspiel'
p40
aS'Gong'
p41
aS'Gunshot_or_gunfire'
p42
aS'Harmonica'
p43
aS'Hi-hat'
p44
aS'Keys_jangling'
p45
aS'Knock'
p46
aS'Laughter'
p47
aS'Meow'
p48
aS'Microwave_oven'
p49
aS'Oboe'
p50
aS'Saxophone'
p51
aS'Scissors'
p52
aS'Shatter'
p53
aS'Snare_drum'
p54
aS'Squeak'
p55
aS'Tambourine'
p56
aS'Tearing'
p57
aS'Telephone'
p58
aS'Trumpet'
p59
aS'Violin_or_fiddle'
p60
aS'Writing'
p61
atp62
bsS'_sklearn_version'
p63
S'0.19.1'
p64
sb.